; Function Attrs: nounwind uwtable
define hidden void @zim_DOMNode_isDefaultNamespace(ptr nocapture noundef readonly %0, ptr nocapture noundef writeonly %1) local_unnamed_addr #0 {
  %3 = alloca i64, align 8
  %4 = alloca ptr, align 8
  store i64 0, ptr %3, align 8
  %5 = getelementptr inbounds i8, ptr %0, i64 44
  %6 = load i32, ptr %5, align 4
  %7 = call i32 (i32, ptr, ...) @zend_parse_parameters(i32 noundef %6, ptr noundef nonnull @.str.19, ptr noundef nonnull %4, ptr noundef nonnull %3) #12
  %8 = icmp eq i32 %7, -1
  br i1 %8, label %9, label %12

9:                                                ; preds = %2
  %10 = load ptr, ptr getelementptr inbounds (%struct._zend_executor_globals, ptr @executor_globals, i64 0, i32 50), align 8
  %11 = icmp ne ptr %10, null
  call void @llvm.assume(i1 %11)
  br label %49

12:                                               ; preds = %2
  %13 = getelementptr inbounds i8, ptr %0, i64 32
  %14 = load ptr, ptr %13, align 8
  %15 = getelementptr inbounds i8, ptr %14, i64 -24
  %16 = load ptr, ptr %15, align 8
  %17 = icmp eq ptr %16, null
  br i1 %17, label %18, label %26

18:                                               ; preds = %12
  %19 = getelementptr inbounds i8, ptr %14, i64 16
  %20 = load ptr, ptr %19, align 8
  %21 = getelementptr inbounds i8, ptr %20, i64 8
  %22 = load ptr, ptr %21, align 8
  %23 = getelementptr inbounds i8, ptr %22, i64 24
  call void (ptr, ptr, ...) @zend_throw_error(ptr noundef null, ptr noundef nonnull @.str.11, ptr noundef nonnull %23) #12
  %24 = load ptr, ptr getelementptr inbounds (%struct._zend_executor_globals, ptr @executor_globals, i64 0, i32 50), align 8
  %25 = icmp ne ptr %24, null
  call void @llvm.assume(i1 %25)
  br label %49

26:                                               ; preds = %12
  %27 = load ptr, ptr %16, align 8
  %28 = getelementptr inbounds i8, ptr %27, i64 8
  %29 = load i32, ptr %28, align 8
  switch i32 %29, label %32 [
    i32 9, label %30
    i32 13, label %30
  ]

30:                                               ; preds = %26, %26
  %31 = call ptr @xmlDocGetRootElement(ptr noundef nonnull %27) #12
  br label %32

32:                                               ; preds = %26, %30
  %.0 = phi ptr [ %31, %30 ], [ %27, %26 ]
  %33 = icmp ne ptr %.0, null
  %34 = load i64, ptr %3, align 8
  %35 = icmp ne i64 %34, 0
  %or.cond = select i1 %33, i1 %35, i1 false
  br i1 %or.cond, label %36, label %47

36:                                               ; preds = %32
  %37 = getelementptr inbounds i8, ptr %.0, i64 64
  %38 = load ptr, ptr %37, align 8
  %39 = call ptr @xmlSearchNs(ptr noundef %38, ptr noundef nonnull %.0, ptr noundef null) #12
  %.not = icmp eq ptr %39, null
  br i1 %.not, label %47, label %40

40:                                               ; preds = %36
  %41 = getelementptr inbounds i8, ptr %39, i64 16
  %42 = load ptr, ptr %41, align 8
  %43 = load ptr, ptr %4, align 8
  %44 = call i32 @xmlStrEqual(ptr noundef %42, ptr noundef %43) #12
  %.not20 = icmp eq i32 %44, 0
  br i1 %.not20, label %47, label %45

45:                                               ; preds = %40
  %46 = getelementptr inbounds i8, ptr %1, i64 8
  store i32 3, ptr %46, align 8
  br label %49

47:                                               ; preds = %36, %40, %32
  %48 = getelementptr inbounds i8, ptr %1, i64 8
  store i32 2, ptr %48, align 8
  br label %49

49:                                               ; preds = %47, %45, %18, %9
  ret void
}